target datalayout = "e-m:e-p270:32:32-p271:32:32-p272:64:64-i64:64-i128:128-f80:128-n8:16:32:64-S128"
target triple = "x86_64-pc-linux-gnu"

%struct._asn1_ctx_t = type { i32, i32, i8, ptr, ptr, ptr, ptr, ptr, %struct.anon, %struct.anon.2, %struct.anon.3, ptr }
%struct.anon = type { i32, i8, i8, i8, ptr, ptr, i32, i32, ptr, ptr, ptr, %union.anon }
%union.anon = type { %struct.anon.0 }
%struct.anon.0 = type { ptr }
%struct.anon.2 = type { ptr, ptr, ptr }
%struct.anon.3 = type { i32, i8, ptr, i32, i32, ptr, ptr, ptr, %union.anon.4 }
%union.anon.4 = type { %struct.anon.5 }
%struct.anon.5 = type { ptr }

@glbl_dissect_container = internal global i8 0, align 1
@rrc_s_to_trnc_handle = internal global ptr null, align 8
@rrc_t_to_srnc_handle = internal global ptr null, align 8
@rrc_ho_to_utran_cmd = internal global ptr null, align 8
@ProtocolIE_ID = internal global i32 0, align 4

; Function Attrs: null_pointer_is_valid sspstrong uwtable
define internal i32 @dissect_ranap_RRC_Container(ptr noundef %0, i32 noundef %1, ptr noundef %2, ptr noundef %3, i32 noundef %4) #0 {
  %6 = alloca ptr, align 8
  %7 = alloca i32, align 4
  %8 = alloca ptr, align 8
  %9 = alloca ptr, align 8
  %10 = alloca i32, align 4
  %11 = alloca ptr, align 8
  %12 = alloca i8, align 1
  store ptr %0, ptr %6, align 8
  store i32 %1, ptr %7, align 4
  store ptr %2, ptr %8, align 8
  store ptr %3, ptr %9, align 8
  store i32 %4, ptr %10, align 4
  call void @llvm.lifetime.start.p0(i64 8, ptr %11) #5
  store ptr null, ptr %11, align 8
  call void @llvm.lifetime.start.p0(i64 1, ptr %12) #5
  store i8 0, ptr %12, align 1
  %13 = load ptr, ptr %6, align 8
  %14 = load i32, ptr %7, align 4
  %15 = load ptr, ptr %8, align 8
  %16 = load ptr, ptr %9, align 8
  %17 = load i32, ptr %10, align 4
  %18 = call i32 @dissect_per_octet_string(ptr noundef %13, i32 noundef %14, ptr noundef %15, ptr noundef %16, i32 noundef %17, i32 noundef -1, i32 noundef -1, i1 noundef zeroext false, ptr noundef %11)
  store i32 %18, ptr %7, align 4
  %19 = load ptr, ptr %11, align 8
  %20 = icmp ne ptr %19, null
  br i1 %20, label %21, label %69

21:                                               ; preds = %5
  %22 = load ptr, ptr %11, align 8
  %23 = call i32 @tvb_reported_length(ptr noundef %22)
  %24 = icmp ne i32 %23, 0
  br i1 %24, label %25, label %69

25:                                               ; preds = %21
  %26 = load i8, ptr @glbl_dissect_container, align 1, !range !6, !noundef !7
  %27 = trunc i8 %26 to i1
  br i1 %27, label %28, label %69

28:                                               ; preds = %25
  %29 = load i32, ptr @ProtocolIE_ID, align 4
  switch i32 %29, label %67 [
    i32 61, label %30
    i32 63, label %39
  ]

30:                                               ; preds = %28
  %31 = load ptr, ptr @rrc_s_to_trnc_handle, align 8
  %32 = load ptr, ptr %11, align 8
  %33 = load ptr, ptr %8, align 8
  %34 = getelementptr inbounds nuw %struct._asn1_ctx_t, ptr %33, i32 0, i32 3
  %35 = load ptr, ptr %34, align 8
  %36 = load ptr, ptr %9, align 8
  %37 = call ptr @proto_tree_get_root(ptr noundef %36)
  %38 = call i32 @call_dissector(ptr noundef %31, ptr noundef %32, ptr noundef %35, ptr noundef %37)
  br label %68

39:                                               ; preds = %28
  %40 = load ptr, ptr %11, align 8
  %41 = call zeroext i8 @tvb_get_uint8(ptr noundef %40, i32 noundef 0)
  %42 = zext i8 %41 to i32
  %43 = ashr i32 %42, 5
  %44 = trunc i32 %43 to i8
  store i8 %44, ptr %12, align 1
  %45 = load i8, ptr %12, align 1
  %46 = zext i8 %45 to i32
  %47 = icmp slt i32 %46, 7
  br i1 %47, label %48, label %57

48:                                               ; preds = %39
  %49 = load ptr, ptr @rrc_t_to_srnc_handle, align 8
  %50 = load ptr, ptr %11, align 8
  %51 = load ptr, ptr %8, align 8
  %52 = getelementptr inbounds nuw %struct._asn1_ctx_t, ptr %51, i32 0, i32 3
  %53 = load ptr, ptr %52, align 8
  %54 = load ptr, ptr %9, align 8
  %55 = call ptr @proto_tree_get_root(ptr noundef %54)
  %56 = call i32 @call_dissector(ptr noundef %49, ptr noundef %50, ptr noundef %53, ptr noundef %55)
  br label %66

57:                                               ; preds = %39
  %58 = load ptr, ptr @rrc_ho_to_utran_cmd, align 8
  %59 = load ptr, ptr %11, align 8
  %60 = load ptr, ptr %8, align 8
  %61 = getelementptr inbounds nuw %struct._asn1_ctx_t, ptr %60, i32 0, i32 3
  %62 = load ptr, ptr %61, align 8
  %63 = load ptr, ptr %9, align 8
  %64 = call ptr @proto_tree_get_root(ptr noundef %63)
  %65 = call i32 @call_dissector(ptr noundef %58, ptr noundef %59, ptr noundef %62, ptr noundef %64)
  br label %66

66:                                               ; preds = %57, %48
  br label %68

67:                                               ; preds = %28
  br label %68

68:                                               ; preds = %67, %66, %30
  br label %69

69:                                               ; preds = %68, %25, %21, %5
  %70 = load i32, ptr %7, align 4
  call void @llvm.lifetime.end.p0(i64 1, ptr %12) #5
  call void @llvm.lifetime.end.p0(i64 8, ptr %11) #5
  ret i32 %70
}