; Function Attrs: null_pointer_is_valid sspstrong uwtable
define internal i32 @dissect_ranap_RRC_Container(ptr noundef %0, i32 noundef %1, ptr noundef %2, ptr noundef %3, i32 noundef %4) #0 {
  %6 = alloca ptr, align 8
  call void @llvm.lifetime.start.p0(i64 8, ptr nonnull %6) #4
  store ptr null, ptr %6, align 8
  %7 = call i32 @dissect_per_octet_string(ptr noundef %0, i32 noundef %1, ptr noundef %2, ptr noundef %3, i32 noundef %4, i32 noundef -1, i32 noundef -1, i1 noundef zeroext false, ptr noundef nonnull %6)
  %8 = load ptr, ptr %6, align 8
  %.not = icmp eq ptr %8, null
  br i1 %.not, label %37, label %9

9:                                                ; preds = %5
  %10 = call i32 @tvb_reported_length(ptr noundef nonnull %8)
  %.not12 = icmp eq i32 %10, 0
  br i1 %.not12, label %37, label %11

11:                                               ; preds = %9
  %12 = load i8, ptr @glbl_dissect_container, align 1, !range !6, !noundef !7
  %13 = trunc nuw i8 %12 to i1
  br i1 %13, label %14, label %37

14:                                               ; preds = %11
  %15 = load i32, ptr @ProtocolIE_ID, align 4
  switch i32 %15, label %37 [
    i32 61, label %16
    i32 63, label %23
  ]

16:                                               ; preds = %14
  %17 = load ptr, ptr @rrc_s_to_trnc_handle, align 8
  %18 = load ptr, ptr %6, align 8
  %19 = getelementptr inbounds nuw i8, ptr %2, i64 16
  %20 = load ptr, ptr %19, align 8
  %21 = call ptr @proto_tree_get_root(ptr noundef %3)
  %22 = call i32 @call_dissector(ptr noundef %17, ptr noundef %18, ptr noundef %20, ptr noundef %21)
  br label %37

23:                                               ; preds = %14
  %24 = load ptr, ptr %6, align 8
  %25 = call zeroext i8 @tvb_get_uint8(ptr noundef %24, i32 noundef 0)
  %.not13 = icmp ugt i8 %25, -33
  %26 = load ptr, ptr %6, align 8
  %27 = getelementptr inbounds nuw i8, ptr %2, i64 16
  %28 = load ptr, ptr %27, align 8
  br i1 %.not13, label %33, label %29

29:                                               ; preds = %23
  %30 = load ptr, ptr @rrc_t_to_srnc_handle, align 8
  %31 = call ptr @proto_tree_get_root(ptr noundef %3)
  %32 = call i32 @call_dissector(ptr noundef %30, ptr noundef %26, ptr noundef %28, ptr noundef %31)
  br label %37

33:                                               ; preds = %23
  %34 = load ptr, ptr @rrc_ho_to_utran_cmd, align 8
  %35 = call ptr @proto_tree_get_root(ptr noundef %3)
  %36 = call i32 @call_dissector(ptr noundef %34, ptr noundef %26, ptr noundef %28, ptr noundef %35)
  br label %37

37:                                               ; preds = %16, %33, %29, %14, %11, %9, %5
  call void @llvm.lifetime.end.p0(i64 8, ptr nonnull %6) #4
  ret i32 %7
}